target datalayout = "e-m:e-p270:32:32-p271:32:32-p272:64:64-i64:64-i128:128-f80:128-n8:16:32:64-S128"
target triple = "x86_64-pc-linux-gnu"

%struct._asn1_ctx_t = type { i32, i32, i8, ptr, ptr, ptr, ptr, ptr, %struct.anon, %struct.anon.2, %struct.anon.3, ptr }
%struct.anon = type { i32, i8, i8, i8, ptr, ptr, i32, i32, ptr, ptr, ptr, %union.anon }
%union.anon = type { %struct.anon.0 }
%struct.anon.0 = type { ptr }
%struct.anon.2 = type { ptr, ptr, ptr }
%struct.anon.3 = type { i32, i8, ptr, i32, i32, ptr, ptr, ptr, %union.anon.4 }
%union.anon.4 = type { %struct.anon.5 }
%struct.anon.5 = type { ptr }
%struct._packet_info = type { ptr, ptr, i32, i32, %struct.nstime_t, %struct.nstime_t, %struct.nstime_t, i8, ptr, ptr, ptr, ptr, %struct._address, %struct._address, %struct._address, %struct._address, %struct._address, %struct._address, i32, ptr, i8, [3 x i8], %struct.anon.7, i32, i32, i32, i32, ptr, i8, ptr, ptr, i16, i16, i32, i32, i16, i32, i32, ptr, ptr, ptr, i8, i8, i16, i16, i16, i32, i16, i16, ptr, ptr, ptr, ptr, ptr, i32, i32 }
%struct.nstime_t = type { i64, i32 }
%struct._address = type { i32, i32, ptr, ptr }
%struct.anon.7 = type { i8, [3 x i8] }
%struct._h245_packet_info = type { i32, [50 x i8], [50 x i8] }
%struct._gef_ctx_t = type { i32, ptr, ptr, ptr, ptr, ptr }

@h245_pi = hidden global ptr null, align 8
@hf_h245_subMessageIdentifier_standard = internal global i32 0, align 4
@.str.2977 = private unnamed_addr constant [10 x i8] c"<unknown>\00", align 1
@.str.3050 = private unnamed_addr constant [27 x i8] c"GenericMessage/0.0.8.239.2\00", align 1
@.str.3051 = private unnamed_addr constant [3 x i8] c"%u\00", align 1
@.str.3052 = private unnamed_addr constant [3 x i8] c"%s\00", align 1

; Function Attrs: null_pointer_is_valid sspstrong uwtable
define internal i32 @dissect_h245_T_subMessageIdentifier(ptr noundef %0, i32 noundef %1, ptr noundef %2, ptr noundef %3, i32 noundef %4) #1 {
  %6 = alloca ptr, align 8
  %7 = alloca i32, align 4
  %8 = alloca ptr, align 8
  %9 = alloca ptr, align 8
  %10 = alloca i32, align 4
  %11 = alloca i32, align 4
  %12 = alloca ptr, align 8
  store ptr %0, ptr %6, align 8
  store i32 %1, ptr %7, align 4
  store ptr %2, ptr %8, align 8
  store ptr %3, ptr %9, align 8
  store i32 %4, ptr %10, align 4
  call void @llvm.lifetime.start.p0(i64 4, ptr %11) #12
  call void @llvm.lifetime.start.p0(i64 8, ptr %12) #12
  %13 = load ptr, ptr %8, align 8
  %14 = getelementptr inbounds nuw %struct._asn1_ctx_t, ptr %13, i32 0, i32 7
  %15 = load ptr, ptr %14, align 8
  %16 = call ptr @gef_ctx_get(ptr noundef %15)
  store ptr %16, ptr %12, align 8
  %17 = load ptr, ptr %12, align 8
  %18 = icmp ne ptr %17, null
  br i1 %18, label %19, label %28

19:                                               ; preds = %5
  %20 = load ptr, ptr %12, align 8
  %21 = getelementptr inbounds nuw %struct._gef_ctx_t, ptr %20, i32 0, i32 5
  %22 = load ptr, ptr %21, align 8
  %23 = call i32 @strcmp(ptr noundef @.str.3050, ptr noundef %22) #14
  %24 = icmp eq i32 %23, 0
  br i1 %24, label %25, label %27

25:                                               ; preds = %19
  %26 = load i32, ptr @hf_h245_subMessageIdentifier_standard, align 4
  store i32 %26, ptr %10, align 4
  br label %27

27:                                               ; preds = %25, %19
  br label %28

28:                                               ; preds = %27, %5
  %29 = load ptr, ptr %6, align 8
  %30 = load i32, ptr %7, align 4
  %31 = load ptr, ptr %8, align 8
  %32 = load ptr, ptr %9, align 8
  %33 = load i32, ptr %10, align 4
  %34 = call i32 @dissect_per_constrained_integer(ptr noundef %29, i32 noundef %30, ptr noundef %31, ptr noundef %32, i32 noundef %33, i32 noundef 0, i32 noundef 127, ptr noundef %11, i1 noundef zeroext false)
  store i32 %34, ptr %7, align 4
  %35 = load ptr, ptr %12, align 8
  %36 = icmp ne ptr %35, null
  br i1 %36, label %37, label %56

37:                                               ; preds = %28
  %38 = load ptr, ptr %8, align 8
  %39 = getelementptr inbounds nuw %struct._asn1_ctx_t, ptr %38, i32 0, i32 3
  %40 = load ptr, ptr %39, align 8
  %41 = getelementptr inbounds nuw %struct._packet_info, ptr %40, i32 0, i32 51
  %42 = load ptr, ptr %41, align 8
  %43 = load i32, ptr %11, align 4
  %44 = call noalias ptr (ptr, ptr, ...) @wmem_strdup_printf(ptr noundef %42, ptr noundef @.str.3051, i32 noundef %43)
  %45 = load ptr, ptr %12, align 8
  %46 = getelementptr inbounds nuw %struct._gef_ctx_t, ptr %45, i32 0, i32 4
  store ptr %44, ptr %46, align 8
  %47 = load ptr, ptr %8, align 8
  %48 = getelementptr inbounds nuw %struct._asn1_ctx_t, ptr %47, i32 0, i32 3
  %49 = load ptr, ptr %48, align 8
  %50 = getelementptr inbounds nuw %struct._packet_info, ptr %49, i32 0, i32 51
  %51 = load ptr, ptr %50, align 8
  %52 = load ptr, ptr %8, align 8
  %53 = getelementptr inbounds nuw %struct._asn1_ctx_t, ptr %52, i32 0, i32 7
  %54 = load ptr, ptr %53, align 8
  %55 = call ptr @gef_ctx_get(ptr noundef %54)
  call void @gef_ctx_update_key(ptr noundef %51, ptr noundef %55)
  br label %56

56:                                               ; preds = %37, %28
  %57 = load i32, ptr %10, align 4
  %58 = load i32, ptr @hf_h245_subMessageIdentifier_standard, align 4
  %59 = icmp eq i32 %57, %58
  br i1 %59, label %60, label %74

60:                                               ; preds = %56
  %61 = load ptr, ptr %8, align 8
  %62 = getelementptr inbounds nuw %struct._asn1_ctx_t, ptr %61, i32 0, i32 3
  %63 = load ptr, ptr %62, align 8
  %64 = getelementptr inbounds nuw %struct._packet_info, ptr %63, i32 0, i32 1
  %65 = load ptr, ptr %64, align 8
  %66 = load i32, ptr %11, align 4
  %67 = call ptr @val_to_str_const(i32 noundef %66, ptr noundef @h245_h239subMessageIdentifier_vals, ptr noundef @.str.2977)
  call void @col_append_str(ptr noundef %65, i32 noundef 25, ptr noundef %67)
  %68 = load ptr, ptr @h245_pi, align 8
  %69 = getelementptr inbounds nuw %struct._h245_packet_info, ptr %68, i32 0, i32 1
  %70 = getelementptr inbounds [50 x i8], ptr %69, i64 0, i64 0
  %71 = load i32, ptr %11, align 4
  %72 = call ptr @val_to_str_const(i32 noundef %71, ptr noundef @h245_h239subMessageIdentifier_vals, ptr noundef @.str.2977)
  %73 = call i32 (ptr, i64, i32, i64, ptr, ...) @__snprintf_chk(ptr noundef %70, i64 noundef 50, i32 noundef 2, i64 noundef 50, ptr noundef @.str.3052, ptr noundef %72)
  br label %74

74:                                               ; preds = %60, %56
  %75 = load i32, ptr %7, align 4
  call void @llvm.lifetime.end.p0(i64 8, ptr %12) #12
  call void @llvm.lifetime.end.p0(i64 4, ptr %11) #12
  ret i32 %75
}