; Function Attrs: null_pointer_is_valid sspstrong uwtable
define internal i32 @dissect_h245_T_subMessageIdentifier(ptr noundef %0, i32 noundef %1, ptr noundef %2, ptr noundef %3, i32 noundef %4) #1 {
  %6 = alloca i32, align 4
  call void @llvm.lifetime.start.p0(i64 4, ptr nonnull %6) #13
  %7 = getelementptr inbounds nuw i8, ptr %2, i64 48
  %8 = load ptr, ptr %7, align 8
  %9 = tail call ptr @gef_ctx_get(ptr noundef %8)
  %.not = icmp eq ptr %9, null
  br i1 %.not, label %.thread, label %11

.thread:                                          ; preds = %5
  %10 = call i32 @dissect_per_constrained_integer(ptr noundef %0, i32 noundef %1, ptr noundef %2, ptr noundef %3, i32 noundef %4, i32 noundef 0, i32 noundef 127, ptr noundef nonnull %6, i1 noundef zeroext false)
  br label %30

11:                                               ; preds = %5
  %12 = getelementptr inbounds nuw i8, ptr %9, i64 40
  %13 = load ptr, ptr %12, align 8
  %14 = tail call i32 @strcmp(ptr noundef nonnull dereferenceable(27) @.str.3050, ptr noundef %13) #12
  %15 = icmp eq i32 %14, 0
  %16 = load i32, ptr @hf_h245_subMessageIdentifier_standard, align 4
  %spec.select = select i1 %15, i32 %16, i32 %4
  %17 = call i32 @dissect_per_constrained_integer(ptr noundef %0, i32 noundef %1, ptr noundef %2, ptr noundef %3, i32 noundef %spec.select, i32 noundef 0, i32 noundef 127, ptr noundef nonnull %6, i1 noundef zeroext false)
  %18 = getelementptr inbounds nuw i8, ptr %2, i64 16
  %19 = load ptr, ptr %18, align 8
  %20 = getelementptr inbounds nuw i8, ptr %19, i64 408
  %21 = load ptr, ptr %20, align 8
  %22 = load i32, ptr %6, align 4
  %23 = call noalias ptr (ptr, ptr, ...) @wmem_strdup_printf(ptr noundef %21, ptr noundef nonnull @.str.3051, i32 noundef %22)
  %24 = getelementptr inbounds nuw i8, ptr %9, i64 32
  store ptr %23, ptr %24, align 8
  %25 = load ptr, ptr %18, align 8
  %26 = getelementptr inbounds nuw i8, ptr %25, i64 408
  %27 = load ptr, ptr %26, align 8
  %28 = load ptr, ptr %7, align 8
  %29 = call ptr @gef_ctx_get(ptr noundef %28)
  call void @gef_ctx_update_key(ptr noundef %27, ptr noundef %29)
  br label %30

30:                                               ; preds = %.thread, %11
  %31 = phi i32 [ %10, %.thread ], [ %17, %11 ]
  %.017 = phi i32 [ %4, %.thread ], [ %spec.select, %11 ]
  %32 = load i32, ptr @hf_h245_subMessageIdentifier_standard, align 4
  %33 = icmp eq i32 %.017, %32
  br i1 %33, label %34, label %46

34:                                               ; preds = %30
  %35 = getelementptr inbounds nuw i8, ptr %2, i64 16
  %36 = load ptr, ptr %35, align 8
  %37 = getelementptr inbounds nuw i8, ptr %36, i64 8
  %38 = load ptr, ptr %37, align 8
  %39 = load i32, ptr %6, align 4
  %40 = call ptr @val_to_str_const(i32 noundef %39, ptr noundef nonnull @h245_h239subMessageIdentifier_vals, ptr noundef nonnull @.str.2977)
  call void @col_append_str(ptr noundef %38, i32 noundef 25, ptr noundef %40)
  %41 = load ptr, ptr @h245_pi, align 8
  %42 = getelementptr inbounds nuw i8, ptr %41, i64 4
  %43 = load i32, ptr %6, align 4
  %44 = call ptr @val_to_str_const(i32 noundef %43, ptr noundef nonnull @h245_h239subMessageIdentifier_vals, ptr noundef nonnull @.str.2977)
  %45 = call i32 (ptr, i64, i32, i64, ptr, ...) @__snprintf_chk(ptr noundef nonnull %42, i64 noundef 50, i32 noundef 2, i64 noundef 50, ptr noundef nonnull @.str.3052, ptr noundef %44)
  br label %46

46:                                               ; preds = %34, %30
  call void @llvm.lifetime.end.p0(i64 4, ptr nonnull %6) #13
  ret i32 %31
}